target datalayout = "e-m:e-p270:32:32-p271:32:32-p272:64:64-i64:64-i128:128-f80:128-n8:16:32:64-S128"
target triple = "x86_64-pc-linux-gnu"

%struct._MRIStepInnerStepper = type { ptr, ptr, ptr, ptr, i32, i32, i32, double, double, ptr, ptr, i64, i64, i64, i64 }

@.str = private unnamed_addr constant [123 x i8] c"generated/home/dtcxzyw/WorkSpace/Projects/compilers/llvm-opt-benchmark/bench/sundials/sundials/src/arkode/arkode_mristep.c\00", align 1
@.str.96 = private unnamed_addr constant [29 x i8] c"Inner stepper memory is NULL\00", align 1
@__func__.MRIStepInnerStepper_AddForcing = private unnamed_addr constant [31 x i8] c"MRIStepInnerStepper_AddForcing\00", align 1

; Function Attrs: nounwind uwtable
define i32 @MRIStepInnerStepper_AddForcing(ptr noundef %0, double noundef %1, ptr noundef %2) #0 {
  %4 = alloca i32, align 4
  %5 = alloca ptr, align 8
  %6 = alloca double, align 8
  %7 = alloca ptr, align 8
  %8 = alloca double, align 8
  %9 = alloca double, align 8
  %10 = alloca i32, align 4
  %11 = alloca i32, align 4
  store ptr %0, ptr %5, align 8, !tbaa !11
  store double %1, ptr %6, align 8, !tbaa !7
  store ptr %2, ptr %7, align 8, !tbaa !9
  call void @llvm.lifetime.start.p0(i64 8, ptr %8) #8
  call void @llvm.lifetime.start.p0(i64 8, ptr %9) #8
  call void @llvm.lifetime.start.p0(i64 4, ptr %10) #8
  %12 = load ptr, ptr %5, align 8, !tbaa !11
  %13 = icmp eq ptr %12, null
  br i1 %13, label %14, label %15

14:                                               ; preds = %3
  call void (ptr, i32, i32, ptr, ptr, ptr, ...) @arkProcessError(ptr noundef null, i32 noundef -22, i32 noundef 4496, ptr noundef @__func__.MRIStepInnerStepper_AddForcing, ptr noundef @.str, ptr noundef @.str.96)
  store i32 -22, ptr %4, align 4
  store i32 1, ptr %11, align 4
  br label %82

15:                                               ; preds = %3
  %16 = load ptr, ptr %5, align 8, !tbaa !11
  %17 = getelementptr inbounds nuw %struct._MRIStepInnerStepper, ptr %16, i32 0, i32 9
  %18 = load ptr, ptr %17, align 8, !tbaa !242
  %19 = getelementptr inbounds double, ptr %18, i64 0
  store double 1.000000e+00, ptr %19, align 8, !tbaa !7
  %20 = load ptr, ptr %7, align 8, !tbaa !9
  %21 = load ptr, ptr %5, align 8, !tbaa !11
  %22 = getelementptr inbounds nuw %struct._MRIStepInnerStepper, ptr %21, i32 0, i32 10
  %23 = load ptr, ptr %22, align 8, !tbaa !241
  %24 = getelementptr inbounds ptr, ptr %23, i64 0
  store ptr %20, ptr %24, align 8, !tbaa !9
  %25 = load double, ptr %6, align 8, !tbaa !7
  %26 = load ptr, ptr %5, align 8, !tbaa !11
  %27 = getelementptr inbounds nuw %struct._MRIStepInnerStepper, ptr %26, i32 0, i32 7
  %28 = load double, ptr %27, align 8, !tbaa !247
  %29 = fsub double %25, %28
  %30 = load ptr, ptr %5, align 8, !tbaa !11
  %31 = getelementptr inbounds nuw %struct._MRIStepInnerStepper, ptr %30, i32 0, i32 8
  %32 = load double, ptr %31, align 8, !tbaa !248
  %33 = fdiv double %29, %32
  store double %33, ptr %8, align 8, !tbaa !7
  store double 1.000000e+00, ptr %9, align 8, !tbaa !7
  store i32 0, ptr %10, align 4, !tbaa !15
  br label %34

34:                                               ; preds = %66, %15
  %35 = load i32, ptr %10, align 4, !tbaa !15
  %36 = load ptr, ptr %5, align 8, !tbaa !11
  %37 = getelementptr inbounds nuw %struct._MRIStepInnerStepper, ptr %36, i32 0, i32 4
  %38 = load i32, ptr %37, align 8, !tbaa !230
  %39 = icmp slt i32 %35, %38
  br i1 %39, label %40, label %69

40:                                               ; preds = %34
  %41 = load double, ptr %9, align 8, !tbaa !7
  %42 = load ptr, ptr %5, align 8, !tbaa !11
  %43 = getelementptr inbounds nuw %struct._MRIStepInnerStepper, ptr %42, i32 0, i32 9
  %44 = load ptr, ptr %43, align 8, !tbaa !242
  %45 = load i32, ptr %10, align 4, !tbaa !15
  %46 = add nsw i32 %45, 1
  %47 = sext i32 %46 to i64
  %48 = getelementptr inbounds double, ptr %44, i64 %47
  store double %41, ptr %48, align 8, !tbaa !7
  %49 = load ptr, ptr %5, align 8, !tbaa !11
  %50 = getelementptr inbounds nuw %struct._MRIStepInnerStepper, ptr %49, i32 0, i32 3
  %51 = load ptr, ptr %50, align 8, !tbaa !249
  %52 = load i32, ptr %10, align 4, !tbaa !15
  %53 = sext i32 %52 to i64
  %54 = getelementptr inbounds ptr, ptr %51, i64 %53
  %55 = load ptr, ptr %54, align 8, !tbaa !9
  %56 = load ptr, ptr %5, align 8, !tbaa !11
  %57 = getelementptr inbounds nuw %struct._MRIStepInnerStepper, ptr %56, i32 0, i32 10
  %58 = load ptr, ptr %57, align 8, !tbaa !241
  %59 = load i32, ptr %10, align 4, !tbaa !15
  %60 = add nsw i32 %59, 1
  %61 = sext i32 %60 to i64
  %62 = getelementptr inbounds ptr, ptr %58, i64 %61
  store ptr %55, ptr %62, align 8, !tbaa !9
  %63 = load double, ptr %8, align 8, !tbaa !7
  %64 = load double, ptr %9, align 8, !tbaa !7
  %65 = fmul double %64, %63
  store double %65, ptr %9, align 8, !tbaa !7
  br label %66

66:                                               ; preds = %40
  %67 = load i32, ptr %10, align 4, !tbaa !15
  %68 = add nsw i32 %67, 1
  store i32 %68, ptr %10, align 4, !tbaa !15
  br label %34

69:                                               ; preds = %34
  %70 = load ptr, ptr %5, align 8, !tbaa !11
  %71 = getelementptr inbounds nuw %struct._MRIStepInnerStepper, ptr %70, i32 0, i32 4
  %72 = load i32, ptr %71, align 8, !tbaa !230
  %73 = add nsw i32 %72, 1
  %74 = load ptr, ptr %5, align 8, !tbaa !11
  %75 = getelementptr inbounds nuw %struct._MRIStepInnerStepper, ptr %74, i32 0, i32 9
  %76 = load ptr, ptr %75, align 8, !tbaa !242
  %77 = load ptr, ptr %5, align 8, !tbaa !11
  %78 = getelementptr inbounds nuw %struct._MRIStepInnerStepper, ptr %77, i32 0, i32 10
  %79 = load ptr, ptr %78, align 8, !tbaa !241
  %80 = load ptr, ptr %7, align 8, !tbaa !9
  %81 = call i32 @N_VLinearCombination(i32 noundef %73, ptr noundef %76, ptr noundef %79, ptr noundef %80)
  store i32 0, ptr %4, align 4
  store i32 1, ptr %11, align 4
  br label %82

82:                                               ; preds = %69, %14
  call void @llvm.lifetime.end.p0(i64 4, ptr %10) #8
  call void @llvm.lifetime.end.p0(i64 8, ptr %9) #8
  call void @llvm.lifetime.end.p0(i64 8, ptr %8) #8
  %83 = load i32, ptr %4, align 4
  ret i32 %83
}