; Function Attrs: nounwind uwtable
define range(i32 -22, 1) i32 @MRIStepInnerStepper_AddForcing(ptr noundef readonly captures(address_is_null) %0, double noundef %1, ptr noundef %2) local_unnamed_addr #0 {
  %4 = icmp eq ptr %0, null
  br i1 %4, label %5, label %6

5:                                                ; preds = %3
  tail call void (ptr, i32, i32, ptr, ptr, ptr, ...) @arkProcessError(ptr noundef null, i32 noundef -22, i32 noundef 4496, ptr noundef nonnull @__func__.MRIStepInnerStepper_AddForcing, ptr noundef nonnull @.str, ptr noundef nonnull @.str.96) #14
  br label %30

6:                                                ; preds = %3
  %7 = getelementptr inbounds nuw i8, ptr %0, i64 64
  %8 = load ptr, ptr %7, align 8, !tbaa !229
  store double 1.000000e+00, ptr %8, align 8, !tbaa !115
  %9 = getelementptr inbounds nuw i8, ptr %0, i64 72
  %10 = load ptr, ptr %9, align 8, !tbaa !228
  store ptr %2, ptr %10, align 8, !tbaa !167
  %11 = getelementptr inbounds nuw i8, ptr %0, i64 48
  %12 = load double, ptr %11, align 8, !tbaa !231
  %13 = fsub double %1, %12
  %14 = getelementptr inbounds nuw i8, ptr %0, i64 56
  %15 = load double, ptr %14, align 8, !tbaa !232
  %16 = fdiv double %13, %15
  %17 = getelementptr inbounds nuw i8, ptr %0, i64 32
  %18 = load i32, ptr %17, align 8, !tbaa !213
  %19 = icmp sgt i32 %18, 0
  br i1 %19, label %.lr.ph, label %._crit_edge

.lr.ph:                                           ; preds = %6
  %20 = getelementptr inbounds nuw i8, ptr %0, i64 24
  %21 = load ptr, ptr %20, align 8, !tbaa !233
  %wide.trip.count = zext nneg i32 %18 to i64
  br label %22

22:                                               ; preds = %.lr.ph, %22
  %indvars.iv = phi i64 [ 0, %.lr.ph ], [ %indvars.iv.next, %22 ]
  %.02327 = phi double [ 1.000000e+00, %.lr.ph ], [ %27, %22 ]
  %indvars.iv.next = add nuw nsw i64 %indvars.iv, 1
  %23 = getelementptr inbounds nuw double, ptr %8, i64 %indvars.iv.next
  store double %.02327, ptr %23, align 8, !tbaa !115
  %24 = getelementptr inbounds nuw ptr, ptr %21, i64 %indvars.iv
  %25 = load ptr, ptr %24, align 8, !tbaa !167
  %26 = getelementptr inbounds nuw ptr, ptr %10, i64 %indvars.iv.next
  store ptr %25, ptr %26, align 8, !tbaa !167
  %27 = fmul double %16, %.02327
  %exitcond.not = icmp eq i64 %indvars.iv.next, %wide.trip.count
  br i1 %exitcond.not, label %._crit_edge, label %22

._crit_edge:                                      ; preds = %22, %6
  %28 = add nsw i32 %18, 1
  %29 = tail call i32 @N_VLinearCombination(i32 noundef %28, ptr noundef nonnull %8, ptr noundef nonnull %10, ptr noundef %2) #14
  br label %30

30:                                               ; preds = %._crit_edge, %5
  %.024 = phi i32 [ -22, %5 ], [ 0, %._crit_edge ]
  ret i32 %.024
}